target datalayout = "e-m:e-p270:32:32-p271:32:32-p272:64:64-i64:64-i128:128-f80:128-n8:16:32:64-S128"
target triple = "x86_64-pc-linux-gnu"

%struct.anon = type { i32, ptr, ptr, i32, i32, i32, i32, i32, i32, i32, i32, i32, ptr, ptr, ptr, ptr, ptr, ptr, ptr, ptr, [1 x %struct.__jmp_buf_tag], i32, ptr, ptr }
%struct.__jmp_buf_tag = type { [8 x i64], i32, %struct.__sigset_t }
%struct.__sigset_t = type { [16 x i64] }

@_clar = internal global %struct.anon zeroinitializer, align 8
@stderr = external global ptr, align 8
@.str.41 = private unnamed_addr constant [11 x i8] c"Bail out! \00", align 1
@stdout = external global ptr, align 8

; Function Attrs: inlinehint nounwind uwtable
define available_externally i32 @vprintf(ptr noalias noundef %0, ptr noundef %1) #9 {
  %3 = alloca ptr, align 8
  %4 = alloca ptr, align 8
  store ptr %0, ptr %3, align 8, !tbaa !20
  store ptr %1, ptr %4, align 8, !tbaa !105
  %5 = load ptr, ptr @stdout, align 8, !tbaa !47
  %6 = load ptr, ptr %3, align 8, !tbaa !20
  %7 = load ptr, ptr %4, align 8, !tbaa !105
  %8 = call i32 @vfprintf(ptr noundef %5, ptr noundef %6, ptr noundef %7) #13
  ret i32 %8
}

; Function Attrs: nounwind uwtable
define internal void @clar_print_tap_onabort(ptr noundef %0, ptr noundef %1) #0 {
  %3 = alloca ptr, align 8
  %4 = alloca ptr, align 8
  store ptr %0, ptr %3, align 8, !tbaa !20
  store ptr %1, ptr %4, align 8, !tbaa !105
  %5 = call i32 (ptr, ...) @printf(ptr noundef @.str.41)
  %6 = load ptr, ptr %3, align 8, !tbaa !20
  %7 = load ptr, ptr %4, align 8, !tbaa !105
  %8 = call i32 @vprintf(ptr noundef %6, ptr noundef %7) #13
  %9 = load ptr, ptr @stdout, align 8, !tbaa !47
  %10 = call i32 @fflush(ptr noundef %9)
  ret void
}

; Function Attrs: nounwind uwtable
define internal void @clar_print_clap_onabort(ptr noundef %0, ptr noundef %1) #0 {
  %3 = alloca ptr, align 8
  %4 = alloca ptr, align 8
  store ptr %0, ptr %3, align 8, !tbaa !20
  store ptr %1, ptr %4, align 8, !tbaa !105
  %5 = load ptr, ptr @stderr, align 8, !tbaa !47
  %6 = load ptr, ptr %3, align 8, !tbaa !20
  %7 = load ptr, ptr %4, align 8, !tbaa !105
  %8 = call i32 @vfprintf(ptr noundef %5, ptr noundef %6, ptr noundef %7) #13
  ret void
}

; Function Attrs: nounwind uwtable
define internal void @clar_print_onabortv(ptr noundef %0, ptr noundef %1) #0 {
  %3 = alloca ptr, align 8
  %4 = alloca ptr, align 8
  store ptr %0, ptr %3, align 8, !tbaa !20
  store ptr %1, ptr %4, align 8, !tbaa !105
  br label %5

5:                                                ; preds = %2
  %6 = load i32, ptr getelementptr inbounds nuw (%struct.anon, ptr @_clar, i32 0, i32 7), align 8, !tbaa !44
  switch i32 %6, label %13 [
    i32 0, label %7
    i32 1, label %10
  ]

7:                                                ; preds = %5
  %8 = load ptr, ptr %3, align 8, !tbaa !20
  %9 = load ptr, ptr %4, align 8, !tbaa !105
  call void @clar_print_clap_onabort(ptr noundef %8, ptr noundef %9)
  br label %14

10:                                               ; preds = %5
  %11 = load ptr, ptr %3, align 8, !tbaa !20
  %12 = load ptr, ptr %4, align 8, !tbaa !105
  call void @clar_print_tap_onabort(ptr noundef %11, ptr noundef %12)
  br label %14

13:                                               ; preds = %5
  call void @abort() #16
  unreachable

14:                                               ; preds = %10, %7
  br label %15

15:                                               ; preds = %14
  ret void
}