; Function Attrs: nofree nounwind uwtable
define internal fastcc void @clar_print_onabortv(ptr noundef readonly captures(none) %0, ptr noundef nonnull %1) unnamed_addr #18 {
  %3 = load i32, ptr getelementptr inbounds nuw (i8, ptr @_clar, i64 40), align 8, !tbaa !35
  switch i32 %3, label %13 [
    i32 0, label %4
    i32 1, label %7
  ]

4:                                                ; preds = %2
  %5 = load ptr, ptr @stderr, align 8, !tbaa !79
  %6 = tail call i32 @vfprintf(ptr noundef %5, ptr noundef readonly %0, ptr noundef nonnull %1) #35
  br label %14

7:                                                ; preds = %2
  %8 = tail call i32 (ptr, ...) @printf(ptr noundef nonnull dereferenceable(1) @.str.41)
  %9 = load ptr, ptr @stdout, align 8, !tbaa !79, !noalias !103
  %10 = tail call i32 @vfprintf(ptr noundef %9, ptr noundef readonly %0, ptr noundef nonnull %1) #31
  %11 = load ptr, ptr @stdout, align 8, !tbaa !79
  %12 = tail call i32 @fflush(ptr noundef %11)
  br label %14

13:                                               ; preds = %2
  tail call void @abort() #30
  unreachable

14:                                               ; preds = %4, %7
  ret void
}